target datalayout = "e-m:e-p270:32:32-p271:32:32-p272:64:64-i64:64-i128:128-f80:128-n8:16:32:64-S128"
target triple = "x86_64-pc-linux-gnu"

; Function Attrs: nounwind uwtable
define void @cconjugate_vector(i32 noundef %0, i32 noundef %1, ptr noundef %2) #0 {
  %4 = alloca i32, align 4
  %5 = alloca i32, align 4
  %6 = alloca ptr, align 8
  %7 = alloca i32, align 4
  store i32 %0, ptr %4, align 4, !tbaa !8
  store i32 %1, ptr %5, align 4, !tbaa !8
  store ptr %2, ptr %6, align 8, !tbaa !3
  call void @llvm.lifetime.start.p0(i64 4, ptr %7) #5
  %8 = load i32, ptr %5, align 4, !tbaa !8
  %9 = mul nsw i32 %8, 2
  store i32 %9, ptr %5, align 4, !tbaa !8
  store i32 0, ptr %7, align 4, !tbaa !8
  br label %10

10:                                               ; preds = %23, %3
  %11 = load i32, ptr %7, align 4, !tbaa !8
  %12 = load i32, ptr %4, align 4, !tbaa !8
  %13 = icmp slt i32 %11, %12
  br i1 %13, label %14, label %26

14:                                               ; preds = %10
  %15 = load ptr, ptr %6, align 8, !tbaa !3
  %16 = getelementptr inbounds float, ptr %15, i64 1
  %17 = load float, ptr %16, align 4, !tbaa !10
  %18 = fmul float %17, -1.000000e+00
  store float %18, ptr %16, align 4, !tbaa !10
  %19 = load i32, ptr %5, align 4, !tbaa !8
  %20 = load ptr, ptr %6, align 8, !tbaa !3
  %21 = sext i32 %19 to i64
  %22 = getelementptr inbounds float, ptr %20, i64 %21
  store ptr %22, ptr %6, align 8, !tbaa !3
  br label %23

23:                                               ; preds = %14
  %24 = load i32, ptr %7, align 4, !tbaa !8
  %25 = add nsw i32 %24, 1
  store i32 %25, ptr %7, align 4, !tbaa !8
  br label %10, !llvm.loop !23

26:                                               ; preds = %10
  call void @llvm.lifetime.end.p0(i64 4, ptr %7) #5
  ret void
}